target datalayout = "e-m:e-p270:32:32-p271:32:32-p272:64:64-i64:64-i128:128-f80:128-n8:16:32:64-S128"
target triple = "x86_64-pc-linux-gnu"

%struct.attrs_t = type { ptr, i64, i64, i64 }
%struct.gmlattr = type { i16, i16, ptr, %union.anon }
%union.anon = type { ptr }

; Function Attrs: nounwind uwtable
define internal void @free_attrs(ptr noundef %0) #0 {
  %2 = alloca ptr, align 8
  store ptr %0, ptr %2, align 8, !tbaa !4
  %3 = load ptr, ptr %2, align 8, !tbaa !4
  call void @attrs_free(ptr noundef %3)
  %4 = load ptr, ptr %2, align 8, !tbaa !4
  call void @free(ptr noundef %4) #15
  ret void
}

; Function Attrs: nounwind uwtable
define dso_local void @free_attr(ptr noundef %0) #0 {
  %2 = alloca ptr, align 8
  store ptr %0, ptr %2, align 8, !tbaa !4
  %3 = load ptr, ptr %2, align 8, !tbaa !4
  %4 = icmp ne ptr %3, null
  br i1 %4, label %6, label %5

5:                                                ; preds = %1
  br label %30

6:                                                ; preds = %1
  %7 = load ptr, ptr %2, align 8, !tbaa !4
  %8 = getelementptr inbounds nuw %struct.gmlattr, ptr %7, i32 0, i32 0
  %9 = load i16, ptr %8, align 8, !tbaa !45
  %10 = zext i16 %9 to i32
  %11 = icmp eq i32 %10, 289
  br i1 %11, label %12, label %21

12:                                               ; preds = %6
  %13 = load ptr, ptr %2, align 8, !tbaa !4
  %14 = getelementptr inbounds nuw %struct.gmlattr, ptr %13, i32 0, i32 3
  %15 = load ptr, ptr %14, align 8, !tbaa !25
  %16 = icmp ne ptr %15, null
  br i1 %16, label %17, label %21

17:                                               ; preds = %12
  %18 = load ptr, ptr %2, align 8, !tbaa !4
  %19 = getelementptr inbounds nuw %struct.gmlattr, ptr %18, i32 0, i32 3
  %20 = load ptr, ptr %19, align 8, !tbaa !25
  call void @free_attrs(ptr noundef %20)
  br label %25

21:                                               ; preds = %12, %6
  %22 = load ptr, ptr %2, align 8, !tbaa !4
  %23 = getelementptr inbounds nuw %struct.gmlattr, ptr %22, i32 0, i32 3
  %24 = load ptr, ptr %23, align 8, !tbaa !25
  call void @free(ptr noundef %24) #15
  br label %25

25:                                               ; preds = %21, %17
  %26 = load ptr, ptr %2, align 8, !tbaa !4
  %27 = getelementptr inbounds nuw %struct.gmlattr, ptr %26, i32 0, i32 2
  %28 = load ptr, ptr %27, align 8, !tbaa !46
  call void @free(ptr noundef %28) #15
  %29 = load ptr, ptr %2, align 8, !tbaa !4
  call void @free(ptr noundef %29) #15
  br label %30

30:                                               ; preds = %25, %5
  ret void
}

; Function Attrs: inlinehint nounwind uwtable
define internal ptr @attrs_get(ptr noundef %0, i64 noundef %1) #1 {
  %3 = alloca ptr, align 8
  %4 = alloca i64, align 8
  store ptr %0, ptr %3, align 8, !tbaa !4
  store i64 %1, ptr %4, align 8, !tbaa !20
  %5 = load ptr, ptr %3, align 8, !tbaa !4
  %6 = getelementptr inbounds nuw %struct.attrs_t, ptr %5, i32 0, i32 0
  %7 = load ptr, ptr %6, align 8, !tbaa !8
  %8 = load ptr, ptr %3, align 8, !tbaa !4
  %9 = getelementptr inbounds nuw %struct.attrs_t, ptr %8, i32 0, i32 1
  %10 = load i64, ptr %9, align 8, !tbaa !60
  %11 = load i64, ptr %4, align 8, !tbaa !20
  %12 = add i64 %10, %11
  %13 = load ptr, ptr %3, align 8, !tbaa !4
  %14 = getelementptr inbounds nuw %struct.attrs_t, ptr %13, i32 0, i32 3
  %15 = load i64, ptr %14, align 8, !tbaa !61
  %16 = urem i64 %12, %15
  %17 = getelementptr inbounds nuw ptr, ptr %7, i64 %16
  %18 = load ptr, ptr %17, align 8, !tbaa !4
  ret ptr %18
}

; Function Attrs: inlinehint nounwind uwtable
define internal void @attrs_clear(ptr noundef %0) #1 {
  %2 = alloca ptr, align 8
  %3 = alloca i64, align 8
  store ptr %0, ptr %2, align 8, !tbaa !4
  call void @llvm.lifetime.start.p0(i64 8, ptr %3) #15
  store i64 0, ptr %3, align 8, !tbaa !20
  br label %4

4:                                                ; preds = %18, %1
  %5 = load i64, ptr %3, align 8, !tbaa !20
  %6 = load ptr, ptr %2, align 8, !tbaa !4
  %7 = getelementptr inbounds nuw %struct.attrs_t, ptr %6, i32 0, i32 2
  %8 = load i64, ptr %7, align 8, !tbaa !58
  %9 = icmp ult i64 %5, %8
  br i1 %9, label %11, label %10

10:                                               ; preds = %4
  call void @llvm.lifetime.end.p0(i64 8, ptr %3) #15
  br label %21

11:                                               ; preds = %4
  %12 = load ptr, ptr %2, align 8, !tbaa !4
  %13 = load i64, ptr %3, align 8, !tbaa !20
  %14 = call ptr @attrs_get(ptr noundef %12, i64 noundef %13)
  call void @free_attr(ptr noundef %14)
  br label %15

15:                                               ; preds = %11
  br label %16

16:                                               ; preds = %15
  br label %17

17:                                               ; preds = %16
  br label %18

18:                                               ; preds = %17
  %19 = load i64, ptr %3, align 8, !tbaa !20
  %20 = add i64 %19, 1
  store i64 %20, ptr %3, align 8, !tbaa !20
  br label %4, !llvm.loop !59

21:                                               ; preds = %10
  %22 = load ptr, ptr %2, align 8, !tbaa !4
  %23 = getelementptr inbounds nuw %struct.attrs_t, ptr %22, i32 0, i32 2
  store i64 0, ptr %23, align 8, !tbaa !58
  %24 = load ptr, ptr %2, align 8, !tbaa !4
  %25 = getelementptr inbounds nuw %struct.attrs_t, ptr %24, i32 0, i32 1
  store i64 0, ptr %25, align 8, !tbaa !60
  ret void
}

; Function Attrs: inlinehint nounwind uwtable
define internal void @attrs_free(ptr noundef %0) #1 {
  %2 = alloca ptr, align 8
  store ptr %0, ptr %2, align 8, !tbaa !4
  %3 = load ptr, ptr %2, align 8, !tbaa !4
  call void @attrs_clear(ptr noundef %3)
  %4 = load ptr, ptr %2, align 8, !tbaa !4
  %5 = getelementptr inbounds nuw %struct.attrs_t, ptr %4, i32 0, i32 0
  %6 = load ptr, ptr %5, align 8, !tbaa !8
  call void @free(ptr noundef %6) #15
  %7 = load ptr, ptr %2, align 8, !tbaa !4
  call void @llvm.memset.p0.i64(ptr align 8 %7, i8 0, i64 32, i1 false)
  ret void
}