; Function Attrs: inlinehint nounwind uwtable
define internal fastcc void @attrs_free(ptr noundef captures(none) %0) unnamed_addr #1 {
  %2 = getelementptr inbounds nuw i8, ptr %0, i64 16
  %3 = load i64, ptr %2, align 8, !tbaa !4
  %.not = icmp eq i64 %3, 0
  br i1 %.not, label %attrs_clear.exit, label %.lr.ph

.lr.ph:                                           ; preds = %1
  %4 = getelementptr inbounds nuw i8, ptr %0, i64 8
  %5 = getelementptr inbounds nuw i8, ptr %0, i64 24
  br label %6

6:                                                ; preds = %.lr.ph, %free_attr.exit
  %7 = phi i64 [ %3, %.lr.ph ], [ %24, %free_attr.exit ]
  %.0.i3 = phi i64 [ 0, %.lr.ph ], [ %25, %free_attr.exit ]
  %8 = load ptr, ptr %0, align 8, !tbaa !10
  %9 = load i64, ptr %4, align 8, !tbaa !11
  %10 = add i64 %9, %.0.i3
  %11 = load i64, ptr %5, align 8, !tbaa !12
  %12 = urem i64 %10, %11
  %13 = getelementptr inbounds nuw ptr, ptr %8, i64 %12
  %14 = load ptr, ptr %13, align 8, !tbaa !13
  %.not.i = icmp eq ptr %14, null
  br i1 %.not.i, label %free_attr.exit, label %15

15:                                               ; preds = %6
  %16 = load i16, ptr %14, align 8, !tbaa !14
  %17 = icmp eq i16 %16, 289
  %18 = getelementptr inbounds nuw i8, ptr %14, i64 16
  %19 = load ptr, ptr %18, align 8, !tbaa !18
  br i1 %17, label %20, label %._crit_edge

20:                                               ; preds = %15
  %.not8.i = icmp eq ptr %19, null
  br i1 %.not8.i, label %._crit_edge, label %21

21:                                               ; preds = %20
  tail call fastcc void @attrs_free(ptr noundef nonnull %19)
  br label %._crit_edge

._crit_edge:                                      ; preds = %20, %15, %21
  %.sink = phi ptr [ %19, %21 ], [ null, %20 ], [ %19, %15 ]
  tail call void @free(ptr noundef %.sink) #20
  %22 = getelementptr inbounds nuw i8, ptr %14, i64 8
  %23 = load ptr, ptr %22, align 8, !tbaa !19
  tail call void @free(ptr noundef %23) #20
  tail call void @free(ptr noundef nonnull %14) #20
  %.pre4 = load i64, ptr %2, align 8, !tbaa !4
  br label %free_attr.exit

free_attr.exit:                                   ; preds = %6, %._crit_edge
  %24 = phi i64 [ %7, %6 ], [ %.pre4, %._crit_edge ]
  %25 = add nuw i64 %.0.i3, 1
  %26 = icmp ult i64 %25, %24
  br i1 %26, label %6, label %attrs_clear.exit, !llvm.loop !20

attrs_clear.exit:                                 ; preds = %free_attr.exit, %1
  %27 = getelementptr inbounds nuw i8, ptr %0, i64 8
  tail call void @llvm.memset.p0.i64(ptr noundef nonnull align 8 dereferenceable(16) %27, i8 0, i64 16, i1 false)
  %28 = load ptr, ptr %0, align 8, !tbaa !10
  tail call void @free(ptr noundef %28) #20
  tail call void @llvm.memset.p0.i64(ptr noundef nonnull align 8 dereferenceable(32) %0, i8 0, i64 32, i1 false)
  ret void
}